; Function Attrs: mustprogress uwtable
define noundef zeroext i1 @_ZN32pxrInternal_v0_24__pxrReserved__16HdExtComputation34_IsEnabledSharedExtComputationDataEv() local_unnamed_addr #0 align 2 personality ptr @__gxx_personality_v0 {
  %1 = load atomic i8, ptr @_ZGVZN32pxrInternal_v0_24__pxrReserved__16HdExtComputation34_IsEnabledSharedExtComputationDataEvE7enabled acquire, align 8
  %2 = icmp eq i8 %1, 0
  br i1 %2, label %3, label %15, !prof !4

3:                                                ; preds = %0
  %4 = tail call i32 @__cxa_guard_acquire(ptr nonnull @_ZGVZN32pxrInternal_v0_24__pxrReserved__16HdExtComputation34_IsEnabledSharedExtComputationDataEvE7enabled) #18
  %.not = icmp eq i32 %4, 0
  br i1 %.not, label %15, label %5

5:                                                ; preds = %3
  %6 = load ptr, ptr @_ZN32pxrInternal_v0_24__pxrReserved__37HD_ENABLE_SHARED_EXT_COMPUTATION_DATAE, align 8
  %7 = load atomic i64, ptr %6 seq_cst, align 8
  %.not.i = icmp eq i64 %7, 0
  br i1 %.not.i, label %8, label %11

8:                                                ; preds = %5
  invoke void @_ZN32pxrInternal_v0_24__pxrReserved__23Tf_InitializeEnvSettingIiEEvPNS_12TfEnvSettingIT_EE(ptr noundef nonnull @_ZN32pxrInternal_v0_24__pxrReserved__37HD_ENABLE_SHARED_EXT_COMPUTATION_DATAE)
          to label %.noexc unwind label %18

.noexc:                                           ; preds = %8
  %9 = load ptr, ptr @_ZN32pxrInternal_v0_24__pxrReserved__37HD_ENABLE_SHARED_EXT_COMPUTATION_DATAE, align 8
  %10 = load atomic i64, ptr %9 seq_cst, align 8
  br label %11

11:                                               ; preds = %.noexc, %5
  %.0.in.i = phi i64 [ %10, %.noexc ], [ %7, %5 ]
  %.0.i = inttoptr i64 %.0.in.i to ptr
  %12 = load i32, ptr %.0.i, align 4
  %13 = icmp eq i32 %12, 1
  %14 = zext i1 %13 to i8
  store i8 %14, ptr @_ZZN32pxrInternal_v0_24__pxrReserved__16HdExtComputation34_IsEnabledSharedExtComputationDataEvE7enabled, align 1
  tail call void @__cxa_guard_release(ptr nonnull @_ZGVZN32pxrInternal_v0_24__pxrReserved__16HdExtComputation34_IsEnabledSharedExtComputationDataEvE7enabled) #18
  br label %15

15:                                               ; preds = %11, %3, %0
  %16 = load i8, ptr @_ZZN32pxrInternal_v0_24__pxrReserved__16HdExtComputation34_IsEnabledSharedExtComputationDataEvE7enabled, align 1
  %17 = trunc nuw i8 %16 to i1
  ret i1 %17

18:                                               ; preds = %8
  %19 = landingpad { ptr, i32 }
          cleanup
  tail call void @__cxa_guard_abort(ptr nonnull @_ZGVZN32pxrInternal_v0_24__pxrReserved__16HdExtComputation34_IsEnabledSharedExtComputationDataEvE7enabled) #18
  resume { ptr, i32 } %19
}